; Function Attrs: mustprogress nofree norecurse nosync nounwind willreturn memory(read, inaccessiblemem: none) uwtable
define { ptr, i64 } @_ZNK11OpenImageIO6v3_1_08DeepData11all_samplesEv(ptr noundef nonnull readonly align 8 captures(none) dereferenceable(20) %0) local_unnamed_addr #12 align 2 {
  %2 = load ptr, ptr %0, align 8, !tbaa !35
  %3 = getelementptr inbounds nuw i8, ptr %2, i64 72
  %4 = load ptr, ptr %3, align 8, !tbaa !54
  %5 = getelementptr inbounds nuw i8, ptr %2, i64 80
  %6 = load ptr, ptr %5, align 8, !tbaa !82
  %7 = ptrtoint ptr %6 to i64
  %8 = ptrtoint ptr %4 to i64
  %9 = sub i64 %7, %8
  %10 = ashr exact i64 %9, 2
  %.fca.0.insert = insertvalue { ptr, i64 } poison, ptr %4, 0
  %.fca.1.insert = insertvalue { ptr, i64 } %.fca.0.insert, i64 %10, 1
  ret { ptr, i64 } %.fca.1.insert
}